; Function Attrs: nounwind sspstrong uwtable
define internal noundef i64 @wmap_aset(i64 noundef %0, i64 noundef %1, i64 noundef %2) #0 {
  %4 = alloca [2 x i64], align 16
  %5 = tail call ptr @rb_check_typeddata(i64 noundef %0, ptr noundef nonnull @weakmap_type) #10
  call void @llvm.lifetime.start.p0(i64 16, ptr nonnull %4) #10
  store i64 %1, ptr %4, align 16, !tbaa !7
  %6 = getelementptr inbounds nuw i8, ptr %4, i64 8
  store i64 %2, ptr %6, align 8, !tbaa !7
  %7 = load ptr, ptr %5, align 8, !tbaa !17
  %8 = ptrtoint ptr %4 to i64
  %9 = call i32 @rb_st_update(ptr noundef %7, i64 noundef %8, ptr noundef nonnull @wmap_aset_replace, i64 noundef %8) #10
  %10 = icmp eq i64 %1, 0
  %11 = and i64 %1, 7
  %12 = icmp ne i64 %11, 0
  %13 = or i1 %10, %12
  br i1 %13, label %rb_obj_written.exit, label %14

14:                                               ; preds = %3
  call void @rb_gc_writebarrier(i64 noundef %0, i64 noundef %1) #10
  br label %rb_obj_written.exit

rb_obj_written.exit:                              ; preds = %3, %14
  %15 = icmp eq i64 %2, 0
  %16 = and i64 %2, 7
  %17 = icmp ne i64 %16, 0
  %18 = or i1 %15, %17
  br i1 %18, label %rb_obj_written.exit7, label %19

19:                                               ; preds = %rb_obj_written.exit
  call void @rb_gc_writebarrier(i64 noundef %0, i64 noundef %2) #10
  br label %rb_obj_written.exit7

rb_obj_written.exit7:                             ; preds = %rb_obj_written.exit, %19
  call void @llvm.lifetime.end.p0(i64 16, ptr nonnull %4) #10
  ret i64 4
}